(dp0
S'Gradient Boost'
p1
(lp2
(I0
I1
I2
I3
I4
I5
I6
I7
I8
I9
I10
I11
I12
I13
I14
I15
I16
I17
I18
tp3
a(I0
I1
I2
I3
I4
I6
I7
I8
I9
I10
I11
I12
I13
I14
I15
I16
I17
I18
tp4
a(I0
I1
I2
I3
I4
I6
I7
I8
I10
I11
I12
I13
I14
I15
I16
I17
I18
tp5
a(I0
I1
I2
I3
I4
I6
I7
I8
I11
I12
I13
I14
I15
I16
I17
I18
tp6
a(I0
I1
I2
I3
I4
I6
I7
I8
I11
I12
I13
I15
I16
I17
I18
tp7
a(I0
I1
I2
I3
I4
I6
I7
I11
I12
I13
I15
I16
I17
I18
tp8
a(I0
I1
I2
I3
I4
I6
I11
I12
I13
I15
I16
I17
I18
tp9
a(I0
I1
I2
I3
I4
I6
I11
I12
I15
I16
I17
I18
tp10
a(I1
I2
I3
I4
I6
I11
I12
I15
I16
I17
I18
tp11
a(I1
I2
I3
I4
I11
I12
I15
I16
I17
I18
tp12
a(I1
I3
I4
I11
I12
I15
I16
I17
I18
tp13
a(I1
I3
I11
I12
I15
I16
I17
I18
tp14
a(I1
I3
I12
I15
I16
I17
I18
tp15
a(I3
I12
I15
I16
I17
I18
tp16
a(I3
I12
I15
I16
I18
tp17
a(I3
I12
I15
I18
tp18
a(I3
I12
I18
tp19
a(I3
I12
tp20
a(I12
tp21
asS'Random Forest'
p22
(lp23
(I0
I1
I2
I3
I4
I5
I6
I7
I8
I9
I10
I11
I12
I13
I14
I15
I16
I17
I18
tp24
a(I0
I1
I2
I3
I4
I5
I6
I7
I8
I9
I10
I11
I12
I13
I14
I15
I16
I18
tp25
a(I1
I2
I3
I4
I5
I6
I7
I8
I9
I10
I11
I12
I13
I14
I15
I16
I18
tp26
a(I2
I3
I4
I5
I6
I7
I8
I9
I10
I11
I12
I13
I14
I15
I16
I18
tp27
a(I2
I3
I4
I5
I6
I7
I8
I9
I10
I11
I12
I14
I15
I16
I18
tp28
a(I2
I3
I4
I6
I7
I8
I9
I10
I11
I12
I14
I15
I16
I18
tp29
a(I2
I3
I4
I6
I7
I8
I9
I10
I11
I12
I15
I16
I18
tp30
a(I2
I3
I4
I6
I7
I9
I10
I11
I12
I15
I16
I18
tp31
a(I2
I3
I4
I6
I9
I10
I11
I12
I15
I16
I18
tp32
a(I2
I3
I4
I9
I10
I11
I12
I15
I16
I18
tp33
a(I3
I4
I9
I10
I11
I12
I15
I16
I18
tp34
a(I3
I4
I10
I11
I12
I15
I16
I18
tp35
a(I3
I4
I11
I12
I15
I16
I18
tp36
a(I3
I4
I11
I12
I15
I18
tp37
a(I3
I11
I12
I15
I18
tp38
a(I3
I11
I12
I18
tp39
a(I3
I11
I18
tp40
a(I11
I18
tp41
a(I11
tp42
asS'Linear'
p43
(lp44
(I0
I1
I2
I3
I4
I5
I6
I7
I8
I9
I10
I11
I12
I13
I14
I15
I16
I17
I18
tp45
a(I0
I1
I2
I3
I4
I5
I6
I7
I9
I10
I11
I12
I13
I14
I15
I16
I17
I18
tp46
a(I0
I1
I2
I3
I4
I5
I6
I7
I9
I10
I12
I13
I14
I15
I16
I17
I18
tp47
a(I0
I1
I2
I3
I4
I5
I6
I9
I10
I12
I13
I14
I15
I16
I17
I18
tp48
a(I0
I1
I2
I3
I4
I6
I9
I10
I12
I13
I14
I15
I16
I17
I18
tp49
a(I0
I1
I2
I3
I4
I6
I9
I10
I12
I13
I15
I16
I17
I18
tp50
a(I0
I1
I3
I4
I6
I9
I10
I12
I13
I15
I16
I17
I18
tp51
a(I0
I1
I3
I4
I9
I10
I12
I13
I15
I16
I17
I18
tp52
a(I0
I1
I3
I4
I10
I12
I13
I15
I16
I17
I18
tp53
a(I0
I1
I3
I4
I12
I13
I15
I16
I17
I18
tp54
a(I1
I3
I4
I12
I13
I15
I16
I17
I18
tp55
a(I1
I3
I4
I12
I13
I15
I17
I18
tp56
a(I1
I3
I4
I12
I13
I15
I17
tp57
a(I1
I3
I4
I12
I13
I15
tp58
a(I1
I3
I4
I12
I13
tp59
a(I1
I3
I12
I13
tp60
a(I1
I3
I12
tp61
a(I3
I12
tp62
a(I12
tp63
as.